target datalayout = "e-m:e-p270:32:32-p271:32:32-p272:64:64-i64:64-i128:128-f80:128-n8:16:32:64-S128"
target triple = "x86_64-pc-linux-gnu"

%"class.icu_77::BytesTrie" = type <{ ptr, ptr, ptr, i32, [4 x i8] }>
%"struct.icu_77::LSR" = type <{ ptr, ptr, ptr, ptr, i32, i32, i32, [4 x i8] }>
%"class.icu_77::LocaleDistance" = type { ptr, %"class.icu_77::BytesTrie", ptr, ptr, ptr, i32, i32, i32, i32, i32, i32 }

; Function Attrs: mustprogress uwtable
define noundef zeroext i1 @_ZNK6icu_7714LocaleDistance13isParadigmLSRERKNS_3LSRE(ptr noundef nonnull align 8 dereferenceable(88) %0, ptr noundef nonnull align 8 dereferenceable(48) %1) #0 align 2 {
  %3 = alloca i1, align 1
  %4 = alloca ptr, align 8
  %5 = alloca ptr, align 8
  %6 = alloca i32, align 4
  %7 = alloca i32, align 4
  store ptr %0, ptr %4, align 8, !tbaa !24
  store ptr %1, ptr %5, align 8, !tbaa !45
  %8 = load ptr, ptr %4, align 8
  call void @llvm.lifetime.start.p0(i64 4, ptr %6) #10
  store i32 0, ptr %6, align 4, !tbaa !40
  br label %9

9:                                                ; preds = %26, %2
  %10 = load i32, ptr %6, align 4, !tbaa !40
  %11 = getelementptr inbounds nuw %"class.icu_77::LocaleDistance", ptr %8, i32 0, i32 5
  %12 = load i32, ptr %11, align 8, !tbaa !39
  %13 = icmp slt i32 %10, %12
  br i1 %13, label %15, label %14

14:                                               ; preds = %9
  store i32 2, ptr %7, align 4
  br label %29

15:                                               ; preds = %9
  %16 = load ptr, ptr %5, align 8, !tbaa !45
  %17 = getelementptr inbounds nuw %"class.icu_77::LocaleDistance", ptr %8, i32 0, i32 4
  %18 = load ptr, ptr %17, align 8, !tbaa !37
  %19 = load i32, ptr %6, align 4, !tbaa !40
  %20 = sext i32 %19 to i64
  %21 = getelementptr inbounds %"struct.icu_77::LSR", ptr %18, i64 %20
  %22 = call noundef signext i8 @_ZNK6icu_773LSR14isEquivalentToERKS0_(ptr noundef nonnull align 8 dereferenceable(48) %16, ptr noundef nonnull align 8 dereferenceable(48) %21)
  %23 = icmp ne i8 %22, 0
  br i1 %23, label %24, label %25

24:                                               ; preds = %15
  store i1 true, ptr %3, align 1
  store i32 1, ptr %7, align 4
  br label %29

25:                                               ; preds = %15
  br label %26

26:                                               ; preds = %25
  %27 = load i32, ptr %6, align 4, !tbaa !40
  %28 = add nsw i32 %27, 1
  store i32 %28, ptr %6, align 4, !tbaa !40
  br label %9, !llvm.loop !83

29:                                               ; preds = %24, %14
  call void @llvm.lifetime.end.p0(i64 4, ptr %6) #10
  %30 = load i32, ptr %7, align 4
  switch i32 %30, label %34 [
    i32 2, label %31
    i32 1, label %32
  ]

31:                                               ; preds = %29
  store i1 false, ptr %3, align 1
  br label %32

32:                                               ; preds = %31, %29
  %33 = load i1, ptr %3, align 1
  ret i1 %33

34:                                               ; preds = %29
  unreachable
}